Certificate:
    Data:
        Version: 3 (0x2)
        Serial Number: 3 (0x3)
        Signature Algorithm: sha256WithRSAEncryption
        Issuer: DC=fr, O=TLS-inferer GASP Inc, OU=TLS-inferer GASP Root CA, CN=TLS-inferer GASP Root CA
        Validity
            Not Before: Mar  8 05:03:53 2024 GMT
            Not After : Mar  8 05:03:53 2026 GMT
        Subject: DC=fr, O=TLS-inferer GASP Inc, CN=invalid.tls-inferer.gasp.ebfe.fr
        Subject Public Key Info:
            Public Key Algorithm: rsaEncryption
                Public-Key: (2048 bit)
                Modulus:
                    00:ab:76:75:84:8f:4a:3f:0a:81:b2:0f:df:37:6b:
                    d2:77:b7:e9:6e:10:d8:7c:8d:e7:0e:e2:15:23:9d:
                    1e:50:16:93:80:3c:ca:39:c4:c1:d8:ff:1a:84:ab:
                    d2:ea:6e:f7:d2:a6:5c:18:f1:67:62:fa:2f:ac:21:
                    9d:94:80:52:69:cd:a7:db:4c:42:a6:4d:37:d5:6f:
                    0e:8f:63:1a:fd:5e:ff:f1:fc:c1:31:f0:79:36:69:
                    4c:1f:38:98:c3:a7:32:53:9a:f7:cf:f5:cb:b8:0d:
                    f6:20:a8:9b:21:79:28:ec:1c:9d:91:8c:e0:e8:ba:
                    10:f9:ae:c1:3f:a4:b5:a9:7c:58:bd:12:0e:f5:cb:
                    2a:d8:2c:f3:ce:ae:ba:e4:fd:4e:79:ea:33:b8:80:
                    cf:33:e5:8c:c3:a0:9a:c2:d9:33:30:64:6e:b0:e3:
                    af:b1:43:15:c0:93:e4:5f:20:eb:f3:ba:15:f6:12:
                    93:6c:d8:23:51:d7:1e:3b:f6:a7:e3:ba:60:9a:7c:
                    68:dd:d4:68:49:4e:a7:84:5a:89:c5:1b:6b:29:65:
                    df:ca:77:0c:01:b7:44:9c:4a:a4:08:04:fe:4b:02:
                    66:9e:68:66:d0:1d:34:64:a5:cc:38:e1:74:a4:fa:
                    df:ec:b8:13:d7:e7:9f:93:d2:5b:eb:ae:8b:6b:57:
                    fd:09
                Exponent: 65537 (0x10001)
        X509v3 extensions:
            X509v3 Key Usage: critical
                Digital Signature, Key Encipherment
            X509v3 Basic Constraints: 
                CA:FALSE
            X509v3 Extended Key Usage: 
                TLS Web Server Authentication
            X509v3 Subject Key Identifier: 
                2B:EE:64:80:29:43:68:59:3A:E5:1D:73:A6:C5:6F:D2:1A:C2:87:EF
            X509v3 Authority Key Identifier: 
                B6:F7:AF:21:AB:48:AF:10:DF:61:86:D9:1B:93:9D:16:D7:D1:E5:27
            X509v3 Subject Alternative Name: 
                DNS:invalid.tls-inferer.gasp.ebfe.fr
    Signature Algorithm: sha256WithRSAEncryption
    Signature Value:
        a7:60:fc:a2:9e:c0:2c:e4:ed:db:2f:16:d4:ee:37:36:27:54:
        1c:5b:0a:f4:35:02:e1:dd:5e:3c:e0:1a:4a:85:0e:fb:b1:18:
        5f:85:8c:60:29:b4:ec:e3:34:1b:4b:bd:e8:a1:9c:43:55:2c:
        94:4c:2c:a1:02:d7:bb:6e:4d:9c:34:00:6a:5f:6a:a0:d9:8b:
        b0:f6:32:9e:8c:7f:86:bc:58:27:3d:47:36:07:f2:82:c0:f5:
        87:a0:2d:13:10:72:e4:08:6a:8c:64:a9:2e:b5:46:b2:39:85:
        56:f3:8e:55:f6:12:71:7f:92:ff:f1:5b:fe:04:1f:ab:02:26:
        c0:e6:5c:61:2e:33:51:bd:6d:ec:56:8e:8a:d3:6a:4a:24:3e:
        ea:5c:81:45:09:52:bb:26:b6:df:b9:75:99:1b:b0:ed:50:e5:
        8a:90:c4:e7:91:f5:35:cd:ad:24:48:6e:76:e5:39:cd:c0:64:
        cf:d5:7f:e0:89:2b:2f:f6:7c:01:ab:68:8d:b0:74:52:9b:02:
        24:ba:3d:84:57:d3:e4:04:58:c3:2a:b7:ad:b7:48:dc:7f:d9:
        1e:62:5c:52:33:93:33:19:6a:b1:69:89:e1:54:f8:d4:aa:63:
        ff:95:f0:ac:9c:e9:1a:3b:e7:d8:ee:46:17:36:80:c0:46:16:
        30:42:bc:9c
-----BEGIN CERTIFICATE-----
MIID8zCCAtugAwIBAgIBAzANBgkqhkiG9w0BAQsFADB5MRIwEAYKCZImiZPyLGQB
GRYCZnIxHTAbBgNVBAoMFFRMUy1pbmZlcmVyIEdBU1AgSW5jMSEwHwYDVQQLDBhU
TFMtaW5mZXJlciBHQVNQIFJvb3QgQ0ExITAfBgNVBAMMGFRMUy1pbmZlcmVyIEdB
U1AgUm9vdCBDQTAeFw0yNDAzMDgwNTAzNTNaFw0yNjAzMDgwNTAzNTNaMF4xEjAQ
BgoJkiaJk/IsZAEZFgJmcjEdMBsGA1UECgwUVExTLWluZmVyZXIgR0FTUCBJbmMx
KTAnBgNVBAMMIGludmFsaWQudGxzLWluZmVyZXIuZ2FzcC5lYmZlLmZyMIIBIjAN
BgkqhkiG9w0BAQEFAAOCAQ8AMIIBCgKCAQEAq3Z1hI9KPwqBsg/fN2vSd7fpbhDY
fI3nDuIVI50eUBaTgDzKOcTB2P8ahKvS6m730qZcGPFnYvovrCGdlIBSac2n20xC
pk031W8Oj2Ma/V7/8fzBMfB5NmlMHziYw6cyU5r3z/XLuA32IKibIXko7BydkYzg
6LoQ+a7BP6S1qXxYvRIO9csq2Czzzq665P1OeeozuIDPM+WMw6CawtkzMGRusOOv
sUMVwJPkXyDr87oV9hKTbNgjUdceO/an47pgmnxo3dRoSU6nhFqJxRtrKWXfyncM
AbdEnEqkCAT+SwJmnmhm0B00ZKXMOOF0pPrf7LgT1+efk9Jb666La1f9CQIDAQAB
o4GgMIGdMA4GA1UdDwEB/wQEAwIFoDAJBgNVHRMEAjAAMBMGA1UdJQQMMAoGCCsG
AQUFBwMBMB0GA1UdDgQWBBQr7mSAKUNoWTrlHXOmxW/SGsKH7zAfBgNVHSMEGDAW
gBS2968hq0ivEN9hhtkbk50W19HlJzArBgNVHREEJDAigiBpbnZhbGlkLnRscy1p
bmZlcmVyLmdhc3AuZWJmZS5mcjANBgkqhkiG9w0BAQsFAAOCAQEAp2D8op7ALOTt
2y8W1O43NidUHFsK9DUC4d1ePOAaSoUO+7EYX4WMYCm07OM0G0u96KGcQ1UslEws
oQLXu25NnDQAal9qoNmLsPYynox/hrxYJz1HNgfygsD1h6AtExBy5AhqjGSpLrVG
sjmFVvOOVfYScX+S//Fb/gQfqwImwOZcYS4zUb1t7FaOitNqSiQ+6lyBRQlSuya2
37l1mRuw7VDlipDE55H1Nc2tJEhuduU5zcBkz9V/4IkrL/Z8AatojbB0UpsCJLo9
hFfT5ARYwyq3rbdI3H/ZHmJcUjOTMxlqsWmJ4VT41Kpj/5XwrJzpGjvn2O5GFzaA
wEYWMEK8nA==
-----END CERTIFICATE-----
