Certificate:
    Data:
        Version: 3 (0x2)
        Serial Number: 2 (0x2)
        Signature Algorithm: sha256WithRSAEncryption
        Issuer: DC=fr, O=TLS-inferer GASP Inc, OU=TLS-inferer GASP Root CA, CN=TLS-inferer GASP Root CA
        Validity
            Not Before: Mar  8 05:03:53 2024 GMT
            Not After : Mar  8 05:03:53 2026 GMT
        Subject: DC=fr, O=TLS-inferer GASP Inc, CN=wwww.tls-inferer.gasp.ebfe.fr
        Subject Public Key Info:
            Public Key Algorithm: rsaEncryption
                Public-Key: (2048 bit)
                Modulus:
                    00:b7:f2:b6:40:8d:03:fb:75:b3:b7:2a:f2:18:d2:
                    a0:63:b2:da:25:d4:0d:92:b2:1a:27:61:b4:1f:f0:
                    92:f0:26:ce:96:99:20:41:db:8c:f5:6d:bc:4c:23:
                    d4:54:3c:5c:e7:17:d8:95:41:13:4b:17:db:ca:c5:
                    b3:16:bf:13:6f:e6:8c:b1:df:e8:a2:cc:7f:af:48:
                    17:d2:33:55:22:b1:86:24:20:92:d5:11:bf:b4:6b:
                    38:ca:fe:76:4b:12:68:4e:10:de:72:35:d0:c6:2f:
                    fd:f7:2c:4a:ea:a3:ae:8a:81:b5:4a:25:89:8b:f1:
                    c9:63:58:3e:57:f3:6c:f6:68:6c:c2:44:be:a2:80:
                    85:91:74:4c:a0:70:8c:50:0d:d6:ac:62:49:1b:1e:
                    4e:ac:0e:62:c9:5a:94:97:72:58:26:a2:cd:df:2c:
                    44:cc:92:32:5c:5a:c6:0c:ac:75:c4:85:c3:17:ce:
                    32:66:45:8c:64:8b:ec:68:48:e9:a7:cf:60:4a:55:
                    84:28:9a:f3:90:f6:a0:3d:5a:e4:41:57:21:30:96:
                    56:17:3a:8a:b2:a3:dd:08:1a:75:43:7b:6c:8f:2a:
                    14:48:da:94:51:01:db:e2:94:1b:6c:29:6a:75:da:
                    b7:7a:ec:3b:bd:74:2c:0d:82:81:73:9c:28:7b:d0:
                    56:59
                Exponent: 65537 (0x10001)
        X509v3 extensions:
            X509v3 Key Usage: critical
                Digital Signature, Key Encipherment
            X509v3 Basic Constraints: 
                CA:FALSE
            X509v3 Extended Key Usage: 
                TLS Web Server Authentication
            X509v3 Subject Key Identifier: 
                97:AC:A7:E9:78:5B:B6:DB:66:49:44:00:EC:A9:CD:C7:32:65:18:B4
            X509v3 Authority Key Identifier: 
                B6:F7:AF:21:AB:48:AF:10:DF:61:86:D9:1B:93:9D:16:D7:D1:E5:27
            X509v3 Subject Alternative Name: 
                DNS:www.tls-inferer.gasp.ebfe.fr
    Signature Algorithm: sha256WithRSAEncryption
    Signature Value:
        3f:f8:5b:2c:3a:f8:3e:cb:8d:07:70:c3:93:14:84:01:9f:cb:
        6e:65:bd:d4:a8:49:bf:cb:49:48:37:df:27:dd:dc:2b:77:d9:
        5a:77:1f:b7:40:b7:0c:2a:f6:e3:79:e1:a7:6c:12:9f:bd:a7:
        a8:f1:f0:05:65:3b:72:ad:ac:2f:b0:40:f7:f3:da:8e:0f:15:
        a2:d5:57:f8:ab:88:d4:33:c9:01:2e:e6:65:90:39:b7:23:98:
        f1:f4:f7:23:b5:f5:fd:57:5a:c4:f5:bd:49:5c:ee:f1:15:b9:
        de:c5:7d:e6:89:80:11:79:15:c4:15:20:50:d6:ac:66:d2:9c:
        cc:fc:93:80:93:c2:58:57:16:33:88:e6:9a:a3:b0:a8:ef:d6:
        35:8d:75:30:9c:4a:28:fa:54:75:fe:d7:16:b0:4f:ae:34:26:
        91:94:d7:16:8d:51:16:3d:7d:2c:06:7b:ff:2e:cb:cb:29:44:
        3c:41:85:07:39:d1:26:d5:7a:0c:2a:2c:36:df:ac:7c:ba:83:
        5c:b8:20:79:b2:84:fa:f1:80:43:2a:2b:57:9e:0f:29:ae:b1:
        0b:28:21:f0:ae:93:d7:fc:e4:5f:b4:fd:b4:cb:a3:89:96:2e:
        23:79:0c:91:38:08:f1:1c:3c:b0:f4:d3:d1:90:fd:bf:69:2a:
        53:f8:4b:cd
-----BEGIN CERTIFICATE-----
MIID7DCCAtSgAwIBAgIBAjANBgkqhkiG9w0BAQsFADB5MRIwEAYKCZImiZPyLGQB
GRYCZnIxHTAbBgNVBAoMFFRMUy1pbmZlcmVyIEdBU1AgSW5jMSEwHwYDVQQLDBhU
TFMtaW5mZXJlciBHQVNQIFJvb3QgQ0ExITAfBgNVBAMMGFRMUy1pbmZlcmVyIEdB
U1AgUm9vdCBDQTAeFw0yNDAzMDgwNTAzNTNaFw0yNjAzMDgwNTAzNTNaMFsxEjAQ
BgoJkiaJk/IsZAEZFgJmcjEdMBsGA1UECgwUVExTLWluZmVyZXIgR0FTUCBJbmMx
JjAkBgNVBAMMHXd3d3cudGxzLWluZmVyZXIuZ2FzcC5lYmZlLmZyMIIBIjANBgkq
hkiG9w0BAQEFAAOCAQ8AMIIBCgKCAQEAt/K2QI0D+3WztyryGNKgY7LaJdQNkrIa
J2G0H/CS8CbOlpkgQduM9W28TCPUVDxc5xfYlUETSxfbysWzFr8Tb+aMsd/oosx/
r0gX0jNVIrGGJCCS1RG/tGs4yv52SxJoThDecjXQxi/99yxK6qOuioG1SiWJi/HJ
Y1g+V/Ns9mhswkS+ooCFkXRMoHCMUA3WrGJJGx5OrA5iyVqUl3JYJqLN3yxEzJIy
XFrGDKx1xIXDF84yZkWMZIvsaEjpp89gSlWEKJrzkPagPVrkQVchMJZWFzqKsqPd
CBp1Q3tsjyoUSNqUUQHb4pQbbClqddq3euw7vXQsDYKBc5woe9BWWQIDAQABo4Gc
MIGZMA4GA1UdDwEB/wQEAwIFoDAJBgNVHRMEAjAAMBMGA1UdJQQMMAoGCCsGAQUF
BwMBMB0GA1UdDgQWBBSXrKfpeFu222ZJRADsqc3HMmUYtDAfBgNVHSMEGDAWgBS2
968hq0ivEN9hhtkbk50W19HlJzAnBgNVHREEIDAeghx3d3cudGxzLWluZmVyZXIu
Z2FzcC5lYmZlLmZyMA0GCSqGSIb3DQEBCwUAA4IBAQA/+FssOvg+y40HcMOTFIQB
n8tuZb3UqEm/y0lIN98n3dwrd9ladx+3QLcMKvbjeeGnbBKfvaeo8fAFZTtyrawv
sED389qODxWi1Vf4q4jUM8kBLuZlkDm3I5jx9PcjtfX9V1rE9b1JXO7xFbnexX3m
iYAReRXEFSBQ1qxm0pzM/JOAk8JYVxYziOaao7Co79Y1jXUwnEoo+lR1/tcWsE+u
NCaRlNcWjVEWPX0sBnv/LsvLKUQ8QYUHOdEm1XoMKiw236x8uoNcuCB5soT68YBD
KitXng8prrELKCHwrpPX/ORftP20y6OJli4jeQyROAjxHDyw9NPRkP2/aSpT+EvN
-----END CERTIFICATE-----
