Certificate:
    Data:
        Version: 3 (0x2)
        Serial Number: 4 (0x4)
        Signature Algorithm: sha256WithRSAEncryption
        Issuer: DC=fr, O=TLS-inferer GASP Inc, OU=TLS-inferer GASP Root CA, CN=TLS-inferer GASP Root CA
        Validity
            Not Before: Mar  8 05:03:53 2024 GMT
            Not After : Mar  8 05:03:53 2026 GMT
        Subject: DC=fr, O=TLS-inferer GASP Inc, CN=Client TLS-inferer GASP
        Subject Public Key Info:
            Public Key Algorithm: rsaEncryption
                Public-Key: (2048 bit)
                Modulus:
                    00:bf:c8:48:ca:6a:1b:d1:16:a5:ab:23:17:47:aa:
                    53:61:1e:59:28:fb:aa:e3:a1:2e:7e:fc:32:6f:c5:
                    b8:4b:f1:4d:e6:3d:72:7d:bb:62:78:49:32:e8:6b:
                    1b:7a:2a:18:b7:44:18:9f:1b:91:d1:0a:7b:71:b5:
                    6d:06:83:93:e6:41:90:8c:51:9f:7b:22:02:1a:f4:
                    de:dd:6d:fa:68:49:cf:42:3b:61:8a:52:88:aa:64:
                    00:01:89:c1:89:58:1b:c2:74:f0:e4:23:f2:59:5d:
                    5f:6e:86:84:2f:25:51:c2:db:22:0b:a3:93:79:50:
                    af:7a:45:f4:11:1a:4c:bf:7b:95:e2:96:3b:ee:25:
                    d1:ad:e1:cd:d5:5b:e9:68:d2:cc:90:8c:23:00:64:
                    e4:0c:69:68:d3:52:3c:49:d7:67:b7:e8:72:97:c1:
                    e8:f6:1a:46:fc:6c:db:1d:dc:9c:f7:4f:08:33:cc:
                    61:ec:05:0e:30:ec:29:3e:61:8c:57:a3:73:27:a1:
                    49:36:7d:e4:31:3d:02:70:87:bb:c6:84:a9:a5:27:
                    b6:08:52:43:58:a5:4a:e7:04:d4:e0:09:c4:88:22:
                    23:58:58:99:53:fa:16:58:29:85:b6:c9:73:fa:c9:
                    0f:71:3e:d5:72:45:f1:18:27:ae:02:00:9d:b0:28:
                    52:e1
                Exponent: 65537 (0x10001)
        X509v3 extensions:
            X509v3 Key Usage: critical
                Digital Signature
            X509v3 Basic Constraints: 
                CA:FALSE
            X509v3 Extended Key Usage: 
                TLS Web Client Authentication
            X509v3 Subject Key Identifier: 
                94:EF:29:81:64:28:D3:1B:BD:8C:09:9A:29:55:6B:4D:C1:8F:AC:5D
            X509v3 Authority Key Identifier: 
                B6:F7:AF:21:AB:48:AF:10:DF:61:86:D9:1B:93:9D:16:D7:D1:E5:27
    Signature Algorithm: sha256WithRSAEncryption
    Signature Value:
        4f:2e:b8:89:e8:6a:c1:06:9a:84:c3:1c:24:cd:c0:c2:d5:7e:
        fc:e4:32:f2:9c:b4:48:4a:71:2c:d8:3c:71:b9:d9:37:4f:84:
        a0:ac:4a:ef:ea:de:b7:79:2c:1b:83:80:04:a4:97:6e:f2:b6:
        09:5e:bf:15:df:22:8d:38:8f:f2:69:2e:84:fc:72:d3:65:a5:
        b3:0a:f6:83:4c:ec:7c:d6:73:c7:87:1a:77:92:aa:f0:3f:62:
        da:b3:ff:bc:af:7c:0c:a3:3d:5b:6f:90:b2:1e:9a:06:37:aa:
        01:db:ed:90:16:08:cd:6e:56:82:63:ca:3c:1b:07:10:c0:bd:
        b4:28:2b:33:f1:ee:0d:23:0f:11:24:6d:3a:35:a0:f6:ac:5b:
        d3:83:39:5a:ab:85:44:36:fa:60:53:05:fa:ed:21:e9:3a:ef:
        8c:2e:fa:24:c6:00:64:85:d7:bc:81:40:08:8b:bb:49:56:b8:
        dc:fb:ad:ca:54:af:0b:d7:de:29:9d:f1:9f:33:d1:e1:9f:21:
        11:1d:bb:13:6e:25:d7:24:4e:0f:c9:92:88:75:35:0c:54:e0:
        a5:ed:ca:9c:12:27:fd:2c:4e:f5:b1:ac:a5:08:c6:cd:81:20:
        e9:1a:c0:88:27:ff:19:ed:30:9a:70:ed:8c:e7:da:92:94:0c:
        cd:11:d6:2b
-----BEGIN CERTIFICATE-----
MIIDuzCCAqOgAwIBAgIBBDANBgkqhkiG9w0BAQsFADB5MRIwEAYKCZImiZPyLGQB
GRYCZnIxHTAbBgNVBAoMFFRMUy1pbmZlcmVyIEdBU1AgSW5jMSEwHwYDVQQLDBhU
TFMtaW5mZXJlciBHQVNQIFJvb3QgQ0ExITAfBgNVBAMMGFRMUy1pbmZlcmVyIEdB
U1AgUm9vdCBDQTAeFw0yNDAzMDgwNTAzNTNaFw0yNjAzMDgwNTAzNTNaMFUxEjAQ
BgoJkiaJk/IsZAEZFgJmcjEdMBsGA1UECgwUVExTLWluZmVyZXIgR0FTUCBJbmMx
IDAeBgNVBAMMF0NsaWVudCBUTFMtaW5mZXJlciBHQVNQMIIBIjANBgkqhkiG9w0B
AQEFAAOCAQ8AMIIBCgKCAQEAv8hIymob0RalqyMXR6pTYR5ZKPuq46Eufvwyb8W4
S/FN5j1yfbtieEky6GsbeioYt0QYnxuR0Qp7cbVtBoOT5kGQjFGfeyICGvTe3W36
aEnPQjthilKIqmQAAYnBiVgbwnTw5CPyWV1fboaELyVRwtsiC6OTeVCvekX0ERpM
v3uV4pY77iXRreHN1VvpaNLMkIwjAGTkDGlo01I8Sddnt+hyl8Ho9hpG/GzbHdyc
908IM8xh7AUOMOwpPmGMV6NzJ6FJNn3kMT0CcIe7xoSppSe2CFJDWKVK5wTU4AnE
iCIjWFiZU/oWWCmFtslz+skPcT7VckXxGCeuAgCdsChS4QIDAQABo3IwcDAOBgNV
HQ8BAf8EBAMCB4AwCQYDVR0TBAIwADATBgNVHSUEDDAKBggrBgEFBQcDAjAdBgNV
HQ4EFgQUlO8pgWQo0xu9jAmaKVVrTcGPrF0wHwYDVR0jBBgwFoAUtvevIatIrxDf
YYbZG5OdFtfR5ScwDQYJKoZIhvcNAQELBQADggEBAE8uuInoasEGmoTDHCTNwMLV
fvzkMvKctEhKcSzYPHG52TdPhKCsSu/q3rd5LBuDgASkl27ytglevxXfIo04j/Jp
LoT8ctNlpbMK9oNM7HzWc8eHGneSqvA/Ytqz/7yvfAyjPVtvkLIemgY3qgHb7ZAW
CM1uVoJjyjwbBxDAvbQoKzPx7g0jDxEkbTo1oPasW9ODOVqrhUQ2+mBTBfrtIek6
74wu+iTGAGSF17yBQAiLu0lWuNz7rcpUrwvX3imd8Z8z0eGfIREduxNuJdckTg/J
koh1NQxU4KXtypwSJ/0sTvWxrKUIxs2BIOkawIgn/xntMJpw7Yzn2pKUDM0R1is=
-----END CERTIFICATE-----
