Certificate:
    Data:
        Version: 3 (0x2)
        Serial Number: 1 (0x1)
        Signature Algorithm: sha256WithRSAEncryption
        Issuer: DC=fr, O=Untrusted TLS-inferer GASP Inc, OU=Untrusted TLS-inferer GASP Root CA, CN=Untrusted TLS-inferer GASP Root CA
        Validity
            Not Before: Mar  8 05:03:53 2024 GMT
            Not After : Mar  8 05:03:53 2026 GMT
        Subject: DC=fr, O=Untrusted TLS-inferer GASP Inc, OU=Untrusted TLS-inferer GASP Root CA, CN=Untrusted TLS-inferer GASP Root CA
        Subject Public Key Info:
            Public Key Algorithm: rsaEncryption
                Public-Key: (2048 bit)
                Modulus:
                    00:f6:7d:d4:71:15:f3:80:8f:84:7c:17:71:e4:66:
                    ec:20:21:1e:69:12:70:35:dd:be:ff:65:e5:7b:f6:
                    0b:41:29:04:48:fb:e6:dd:09:fe:01:f5:3d:34:31:
                    bb:28:d9:d3:c4:d8:94:4d:9b:ad:ef:78:c4:39:71:
                    7a:fe:57:23:dc:b1:07:34:9a:34:c5:84:96:4a:5a:
                    e6:5a:5f:c0:99:92:98:a7:e4:da:33:73:e8:e1:0c:
                    95:aa:c9:d6:5c:df:11:a2:c3:ca:98:db:dc:8b:25:
                    86:57:d5:82:6c:68:d6:cd:bf:80:57:ad:31:01:4b:
                    a2:7a:18:2b:02:32:84:3f:0f:06:68:2b:37:36:2d:
                    4e:d1:70:8c:de:06:29:c3:52:64:ed:eb:d6:38:12:
                    04:8a:62:e9:99:fb:d2:c8:5a:d0:b0:e2:99:cd:f9:
                    64:50:85:8e:af:28:33:7d:1a:6a:b3:c8:56:e0:b4:
                    90:0e:0b:85:61:e2:4d:9a:3e:82:d2:22:84:05:b1:
                    ed:97:ab:69:f8:60:d0:04:4e:89:1b:df:c0:8b:6f:
                    2f:37:e8:4c:fb:dd:26:c5:66:49:a0:bf:11:b1:dd:
                    04:7d:7f:00:3c:8d:d4:0c:d1:a0:1e:a5:e9:69:87:
                    f7:2b:5b:62:74:bf:a3:d3:cf:d8:31:c5:d4:e2:08:
                    12:7b
                Exponent: 65537 (0x10001)
        X509v3 extensions:
            X509v3 Key Usage: critical
                Certificate Sign, CRL Sign
            X509v3 Basic Constraints: critical
                CA:TRUE
            X509v3 Subject Key Identifier: 
                F8:CC:19:49:E7:87:DB:2F:38:DA:5F:09:4C:A8:B7:76:15:1F:12:71
            X509v3 Authority Key Identifier: 
                F8:CC:19:49:E7:87:DB:2F:38:DA:5F:09:4C:A8:B7:76:15:1F:12:71
    Signature Algorithm: sha256WithRSAEncryption
    Signature Value:
        61:e2:de:f6:58:3d:b9:42:40:22:10:3e:af:56:96:61:61:43:
        85:0b:af:b0:7c:43:31:b6:15:34:94:2a:17:29:a2:c7:d2:66:
        b0:a1:4a:25:ab:86:f2:5d:1c:0b:0e:94:14:2d:e3:a2:27:e9:
        a2:7e:c6:13:7a:32:0b:df:be:ef:32:a6:97:65:8a:e9:bd:48:
        db:65:97:d7:a3:74:26:44:04:e3:a5:c2:3e:29:2a:09:87:02:
        cc:58:3d:fb:20:75:37:d0:b4:b1:f3:3b:50:e5:33:95:35:d5:
        9f:f5:89:a8:7f:27:c0:f5:f8:3a:e2:67:eb:45:6d:5b:20:e8:
        a0:cb:6b:61:65:f7:19:90:d7:12:ed:c4:61:90:ad:69:eb:19:
        d9:5b:e7:f8:1d:dc:9d:71:b1:f6:ad:69:87:5a:27:5a:fd:2d:
        70:ed:04:35:e9:93:9b:e5:31:bd:70:1a:d5:26:04:69:fc:9f:
        58:00:b8:e2:1d:80:fe:d8:78:ea:cc:27:27:7b:8e:ad:b1:2f:
        52:bf:4c:45:af:d9:1e:81:95:1d:9d:20:bd:d4:31:a6:bb:8d:
        9c:3c:b5:d0:ba:6f:3f:d8:22:3c:e4:b4:16:f4:60:d1:a0:ee:
        23:bc:40:12:0f:10:c9:7e:9c:d5:0f:77:eb:18:d9:5f:61:05:
        1b:a4:15:8f
-----BEGIN CERTIFICATE-----
MIIEDjCCAvagAwIBAgIBATANBgkqhkiG9w0BAQsFADCBlzESMBAGCgmSJomT8ixk
ARkWAmZyMScwJQYDVQQKDB5VbnRydXN0ZWQgVExTLWluZmVyZXIgR0FTUCBJbmMx
KzApBgNVBAsMIlVudHJ1c3RlZCBUTFMtaW5mZXJlciBHQVNQIFJvb3QgQ0ExKzAp
BgNVBAMMIlVudHJ1c3RlZCBUTFMtaW5mZXJlciBHQVNQIFJvb3QgQ0EwHhcNMjQw
MzA4MDUwMzUzWhcNMjYwMzA4MDUwMzUzWjCBlzESMBAGCgmSJomT8ixkARkWAmZy
MScwJQYDVQQKDB5VbnRydXN0ZWQgVExTLWluZmVyZXIgR0FTUCBJbmMxKzApBgNV
BAsMIlVudHJ1c3RlZCBUTFMtaW5mZXJlciBHQVNQIFJvb3QgQ0ExKzApBgNVBAMM
IlVudHJ1c3RlZCBUTFMtaW5mZXJlciBHQVNQIFJvb3QgQ0EwggEiMA0GCSqGSIb3
DQEBAQUAA4IBDwAwggEKAoIBAQD2fdRxFfOAj4R8F3HkZuwgIR5pEnA13b7/ZeV7
9gtBKQRI++bdCf4B9T00Mbso2dPE2JRNm63veMQ5cXr+VyPcsQc0mjTFhJZKWuZa
X8CZkpin5Nozc+jhDJWqydZc3xGiw8qY29yLJYZX1YJsaNbNv4BXrTEBS6J6GCsC
MoQ/DwZoKzc2LU7RcIzeBinDUmTt69Y4EgSKYumZ+9LIWtCw4pnN+WRQhY6vKDN9
GmqzyFbgtJAOC4Vh4k2aPoLSIoQFse2Xq2n4YNAETokb38CLby836Ez73SbFZkmg
vxGx3QR9fwA8jdQM0aAepelph/crW2J0v6PTz9gxxdTiCBJ7AgMBAAGjYzBhMA4G
A1UdDwEB/wQEAwIBBjAPBgNVHRMBAf8EBTADAQH/MB0GA1UdDgQWBBT4zBlJ54fb
LzjaXwlMqLd2FR8ScTAfBgNVHSMEGDAWgBT4zBlJ54fbLzjaXwlMqLd2FR8ScTAN
BgkqhkiG9w0BAQsFAAOCAQEAYeLe9lg9uUJAIhA+r1aWYWFDhQuvsHxDMbYVNJQq
Fymix9JmsKFKJauG8l0cCw6UFC3joifpon7GE3oyC9++7zKml2WK6b1I22WX16N0
JkQE46XCPikqCYcCzFg9+yB1N9C0sfM7UOUzlTXVn/WJqH8nwPX4OuJn60VtWyDo
oMtrYWX3GZDXEu3EYZCtaesZ2Vvn+B3cnXGx9q1ph1onWv0tcO0ENemTm+UxvXAa
1SYEafyfWAC44h2A/th46swnJ3uOrbEvUr9MRa/ZHoGVHZ0gvdQxpruNnDy10Lpv
P9giPOS0FvRg0aDuI7xAEg8QyX6c1Q936xjZX2EFG6QVjw==
-----END CERTIFICATE-----
