Certificate:
    Data:
        Version: 3 (0x2)
        Serial Number: 2 (0x2)
        Signature Algorithm: sha256WithRSAEncryption
        Issuer: DC=fr, O=Untrusted TLS-inferer GASP Inc, OU=Untrusted TLS-inferer GASP Root CA, CN=Untrusted TLS-inferer GASP Root CA
        Validity
            Not Before: Mar  8 05:03:53 2024 GMT
            Not After : Mar  8 05:03:53 2026 GMT
        Subject: DC=fr, O=Untrusted TLS-inferer GASP Inc, CN=untrusted.tls-inferer.gasp.ebfe.fr
        Subject Public Key Info:
            Public Key Algorithm: rsaEncryption
                Public-Key: (2048 bit)
                Modulus:
                    00:b0:e4:8b:8c:6a:f5:bf:b6:8a:84:4a:6e:0b:25:
                    47:03:22:f5:27:83:d6:9a:f6:e7:a1:6d:08:a8:e7:
                    a5:27:4e:5f:e8:c1:8a:51:7c:0b:d1:ae:32:a4:11:
                    d7:41:2f:73:5a:19:f8:74:a9:d1:ef:b5:23:7f:ba:
                    ac:b2:82:f3:37:91:6f:9f:fa:86:1e:f1:29:d1:5c:
                    9f:e8:ab:87:4b:0f:15:c8:53:38:69:a1:be:7a:06:
                    53:e7:9b:e0:25:7b:a9:28:ad:b6:e3:e9:4e:cd:7e:
                    98:6c:87:0f:98:d6:f7:e7:5a:c8:70:8b:f5:65:0f:
                    08:75:12:ab:9e:c8:3f:72:f9:fe:f0:64:ac:86:77:
                    0c:a3:a9:9a:bb:58:3a:42:fe:21:89:70:8f:d2:ad:
                    7f:af:28:be:1d:d3:13:b5:b5:9a:fa:92:00:75:75:
                    ad:97:4d:f9:21:42:97:df:f0:fd:77:a0:db:3e:51:
                    07:40:33:32:ef:1f:95:88:ee:80:d3:da:0d:8c:89:
                    16:26:c8:21:9a:56:8a:74:f5:3d:32:57:22:cc:6e:
                    0b:02:b0:47:89:53:08:91:d2:7d:32:0a:b5:2a:4c:
                    a2:1c:c2:05:91:2a:bb:eb:e8:60:c9:71:24:b6:dd:
                    5b:c9:87:c1:97:26:9a:ed:f6:5c:ca:6f:d8:3f:66:
                    5f:13
                Exponent: 65537 (0x10001)
        X509v3 extensions:
            X509v3 Key Usage: critical
                Digital Signature, Key Encipherment
            X509v3 Basic Constraints: 
                CA:FALSE
            X509v3 Extended Key Usage: 
                TLS Web Server Authentication
            X509v3 Subject Key Identifier: 
                D6:F4:80:45:47:05:09:0B:79:4B:84:4E:06:C5:26:15:A8:5E:BD:A1
            X509v3 Authority Key Identifier: 
                F8:CC:19:49:E7:87:DB:2F:38:DA:5F:09:4C:A8:B7:76:15:1F:12:71
            X509v3 Subject Alternative Name: 
                DNS:untrusted.tls-inferer.gasp.ebfe.fr
    Signature Algorithm: sha256WithRSAEncryption
    Signature Value:
        eb:48:ff:8a:0f:54:df:93:70:53:b8:62:ad:16:cd:bf:35:55:
        73:55:00:77:be:0c:68:9d:ca:45:a5:3d:68:e7:76:05:53:e2:
        db:19:bb:a8:b6:b1:54:6b:7e:6d:e3:e4:c6:ca:bd:42:82:92:
        a8:ae:89:be:7f:18:3e:38:46:55:0e:a5:61:09:b3:02:2c:5d:
        41:3a:5e:8e:38:b1:e4:65:50:cf:c7:7b:48:ca:f1:da:53:e7:
        30:b7:e7:5c:93:ba:ba:76:66:ef:bc:a1:fd:c5:15:18:71:51:
        ca:27:b2:85:1f:46:cc:82:91:b1:45:ed:52:64:07:31:4a:07:
        ba:fa:33:a7:61:4e:37:35:16:6c:6b:11:f7:ab:8b:e7:83:6f:
        fc:5e:fa:26:77:7f:85:2f:81:e3:6f:66:9a:2d:25:b4:d1:da:
        ac:08:80:79:9c:15:d6:95:74:86:90:69:c9:9c:3e:87:1c:7a:
        99:76:83:29:42:e4:a1:8a:6f:a6:3c:59:b9:3a:87:26:3c:76:
        9b:4e:86:bd:ab:c4:90:5f:08:27:bc:dd:c7:0e:d6:38:3f:55:
        90:91:83:61:fe:3e:c7:61:8d:8f:31:bc:d5:2a:bf:c8:06:f5:
        7a:c7:bb:66:02:58:69:4b:8b:31:d1:c1:52:91:f5:a2:f9:81:
        a7:5b:14:30
-----BEGIN CERTIFICATE-----
MIIEIDCCAwigAwIBAgIBAjANBgkqhkiG9w0BAQsFADCBlzESMBAGCgmSJomT8ixk
ARkWAmZyMScwJQYDVQQKDB5VbnRydXN0ZWQgVExTLWluZmVyZXIgR0FTUCBJbmMx
KzApBgNVBAsMIlVudHJ1c3RlZCBUTFMtaW5mZXJlciBHQVNQIFJvb3QgQ0ExKzAp
BgNVBAMMIlVudHJ1c3RlZCBUTFMtaW5mZXJlciBHQVNQIFJvb3QgQ0EwHhcNMjQw
MzA4MDUwMzUzWhcNMjYwMzA4MDUwMzUzWjBqMRIwEAYKCZImiZPyLGQBGRYCZnIx
JzAlBgNVBAoMHlVudHJ1c3RlZCBUTFMtaW5mZXJlciBHQVNQIEluYzErMCkGA1UE
AwwidW50cnVzdGVkLnRscy1pbmZlcmVyLmdhc3AuZWJmZS5mcjCCASIwDQYJKoZI
hvcNAQEBBQADggEPADCCAQoCggEBALDki4xq9b+2ioRKbgslRwMi9SeD1pr256Ft
CKjnpSdOX+jBilF8C9GuMqQR10Evc1oZ+HSp0e+1I3+6rLKC8zeRb5/6hh7xKdFc
n+irh0sPFchTOGmhvnoGU+eb4CV7qSittuPpTs1+mGyHD5jW9+dayHCL9WUPCHUS
q57IP3L5/vBkrIZ3DKOpmrtYOkL+IYlwj9Ktf68ovh3TE7W1mvqSAHV1rZdN+SFC
l9/w/Xeg2z5RB0AzMu8flYjugNPaDYyJFibIIZpWinT1PTJXIsxuCwKwR4lTCJHS
fTIKtSpMohzCBZEqu+voYMlxJLbdW8mHwZcmmu32XMpv2D9mXxMCAwEAAaOBojCB
nzAOBgNVHQ8BAf8EBAMCBaAwCQYDVR0TBAIwADATBgNVHSUEDDAKBggrBgEFBQcD
ATAdBgNVHQ4EFgQU1vSARUcFCQt5S4ROBsUmFahevaEwHwYDVR0jBBgwFoAU+MwZ
SeeH2y842l8JTKi3dhUfEnEwLQYDVR0RBCYwJIIidW50cnVzdGVkLnRscy1pbmZl
cmVyLmdhc3AuZWJmZS5mcjANBgkqhkiG9w0BAQsFAAOCAQEA60j/ig9U35NwU7hi
rRbNvzVVc1UAd74MaJ3KRaU9aOd2BVPi2xm7qLaxVGt+bePkxsq9QoKSqK6Jvn8Y
PjhGVQ6lYQmzAixdQTpejjix5GVQz8d7SMrx2lPnMLfnXJO6unZm77yh/cUVGHFR
yieyhR9GzIKRsUXtUmQHMUoHuvozp2FONzUWbGsR96uL54Nv/F76Jnd/hS+B429m
mi0ltNHarAiAeZwV1pV0hpBpyZw+hxx6mXaDKULkoYpvpjxZuTqHJjx2m06GvavE
kF8IJ7zdxw7WOD9VkJGDYf4+x2GNjzG81Sq/yAb1ese7ZgJYaUuLMdHBUpH1ovmB
p1sUMA==
-----END CERTIFICATE-----
