Certificate:
    Data:
        Version: 3 (0x2)
        Serial Number: 1 (0x1)
        Signature Algorithm: sha256WithRSAEncryption
        Issuer: DC=fr, O=TLS-inferer GASP Inc, OU=TLS-inferer GASP Root CA, CN=TLS-inferer GASP Root CA
        Validity
            Not Before: Mar  8 05:03:53 2024 GMT
            Not After : Mar  8 05:03:53 2026 GMT
        Subject: DC=fr, O=TLS-inferer GASP Inc, OU=TLS-inferer GASP Root CA, CN=TLS-inferer GASP Root CA
        Subject Public Key Info:
            Public Key Algorithm: rsaEncryption
                Public-Key: (2048 bit)
                Modulus:
                    00:b2:c5:83:2f:24:5b:93:de:ea:d9:d8:66:ab:57:
                    94:ee:23:68:ea:40:f0:60:52:d2:38:8a:fc:3e:e7:
                    59:4e:11:38:3d:07:38:be:2c:89:1e:fa:e3:dc:4c:
                    df:ab:d7:59:f1:f8:11:e7:d1:a5:0c:0c:c5:59:a3:
                    56:04:e0:18:82:f7:b7:08:d8:d6:87:52:bf:71:74:
                    7e:8c:93:dd:f4:d3:fb:1a:c7:3e:51:d7:6a:c2:5c:
                    a2:e7:64:b8:1a:26:7c:98:94:84:c1:bd:96:6a:63:
                    f9:71:55:8f:9b:0f:60:6e:c2:a4:e6:c2:75:2a:cb:
                    89:a4:d2:62:32:32:e3:1c:84:2f:62:9a:27:9a:c0:
                    37:b0:20:ab:00:66:35:2f:46:4a:4f:5d:68:dc:a2:
                    e2:08:47:15:e5:5a:2e:7e:dd:92:9c:88:04:8d:10:
                    dd:37:7e:fc:f8:38:47:f2:0b:86:1a:0f:9c:9b:d4:
                    e6:3d:d5:08:3c:0d:47:67:fa:b5:ee:f7:67:0d:ee:
                    d5:df:2b:01:3f:9b:04:ad:f2:95:1e:61:06:9e:af:
                    6d:4c:15:36:78:b7:64:96:f0:f1:61:27:04:ca:3e:
                    9a:a8:6a:77:04:32:08:63:51:c5:ab:ea:13:f4:43:
                    75:bc:14:62:f8:23:38:ed:d5:23:61:49:37:f4:fe:
                    29:c7
                Exponent: 65537 (0x10001)
        X509v3 extensions:
            X509v3 Key Usage: critical
                Certificate Sign, CRL Sign
            X509v3 Basic Constraints: critical
                CA:TRUE
            X509v3 Subject Key Identifier: 
                B6:F7:AF:21:AB:48:AF:10:DF:61:86:D9:1B:93:9D:16:D7:D1:E5:27
            X509v3 Authority Key Identifier: 
                B6:F7:AF:21:AB:48:AF:10:DF:61:86:D9:1B:93:9D:16:D7:D1:E5:27
    Signature Algorithm: sha256WithRSAEncryption
    Signature Value:
        5d:f8:70:80:59:c7:88:25:89:13:e5:6c:3c:1f:c2:b5:3b:05:
        25:fc:50:ba:08:6d:ff:03:50:19:f5:f0:fa:90:21:a1:73:64:
        70:c1:c7:b1:a0:68:4e:05:9f:71:3e:d9:c9:2c:56:26:61:bd:
        4f:94:13:26:93:fa:29:9d:0f:d8:4b:fc:68:ea:b6:4d:91:42:
        29:7e:8a:ce:05:cc:3a:48:b6:c0:5f:e8:f9:91:f9:19:25:d1:
        64:77:24:87:06:5d:35:36:b7:ad:d5:30:4b:02:ab:ae:e5:f9:
        e1:6f:87:a1:79:3b:d4:a0:42:cc:84:0a:bc:10:81:c4:88:d3:
        03:64:84:bb:aa:11:4f:88:64:56:4c:92:bd:a2:61:f1:0e:30:
        1e:1a:47:97:05:55:27:11:f3:3b:94:68:30:73:69:11:69:65:
        fc:3f:ab:dc:02:23:8e:af:ec:d4:6c:b4:ef:2b:e2:db:a1:0e:
        9c:d3:a9:68:3a:87:e8:a5:39:82:1b:9b:6a:2a:63:fb:eb:7b:
        b4:58:fd:19:b6:56:13:bf:d0:2f:b4:1a:8c:02:b1:cd:1d:61:
        9a:a2:6f:60:e9:8e:f8:c7:eb:2a:af:c0:01:a1:a1:5a:4c:0f:
        45:28:da:28:97:ae:16:15:b5:b7:69:77:a7:8a:d1:3f:12:2e:
        7d:55:a5:28
-----BEGIN CERTIFICATE-----
MIID0DCCArigAwIBAgIBATANBgkqhkiG9w0BAQsFADB5MRIwEAYKCZImiZPyLGQB
GRYCZnIxHTAbBgNVBAoMFFRMUy1pbmZlcmVyIEdBU1AgSW5jMSEwHwYDVQQLDBhU
TFMtaW5mZXJlciBHQVNQIFJvb3QgQ0ExITAfBgNVBAMMGFRMUy1pbmZlcmVyIEdB
U1AgUm9vdCBDQTAeFw0yNDAzMDgwNTAzNTNaFw0yNjAzMDgwNTAzNTNaMHkxEjAQ
BgoJkiaJk/IsZAEZFgJmcjEdMBsGA1UECgwUVExTLWluZmVyZXIgR0FTUCBJbmMx
ITAfBgNVBAsMGFRMUy1pbmZlcmVyIEdBU1AgUm9vdCBDQTEhMB8GA1UEAwwYVExT
LWluZmVyZXIgR0FTUCBSb290IENBMIIBIjANBgkqhkiG9w0BAQEFAAOCAQ8AMIIB
CgKCAQEAssWDLyRbk97q2dhmq1eU7iNo6kDwYFLSOIr8PudZThE4PQc4viyJHvrj
3Ezfq9dZ8fgR59GlDAzFWaNWBOAYgve3CNjWh1K/cXR+jJPd9NP7Gsc+Uddqwlyi
52S4GiZ8mJSEwb2WamP5cVWPmw9gbsKk5sJ1KsuJpNJiMjLjHIQvYponmsA3sCCr
AGY1L0ZKT11o3KLiCEcV5Vouft2SnIgEjRDdN378+DhH8guGGg+cm9TmPdUIPA1H
Z/q17vdnDe7V3ysBP5sErfKVHmEGnq9tTBU2eLdklvDxYScEyj6aqGp3BDIIY1HF
q+oT9EN1vBRi+CM47dUjYUk39P4pxwIDAQABo2MwYTAOBgNVHQ8BAf8EBAMCAQYw
DwYDVR0TAQH/BAUwAwEB/zAdBgNVHQ4EFgQUtvevIatIrxDfYYbZG5OdFtfR5Scw
HwYDVR0jBBgwFoAUtvevIatIrxDfYYbZG5OdFtfR5ScwDQYJKoZIhvcNAQELBQAD
ggEBAF34cIBZx4gliRPlbDwfwrU7BSX8ULoIbf8DUBn18PqQIaFzZHDBx7GgaE4F
n3E+2cksViZhvU+UEyaT+imdD9hL/Gjqtk2RQil+is4FzDpItsBf6PmR+Rkl0WR3
JIcGXTU2t63VMEsCq67l+eFvh6F5O9SgQsyECrwQgcSI0wNkhLuqEU+IZFZMkr2i
YfEOMB4aR5cFVScR8zuUaDBzaRFpZfw/q9wCI46v7NRstO8r4tuhDpzTqWg6h+il
OYIbm2oqY/vre7RY/Rm2VhO/0C+0GowCsc0dYZqib2DpjvjH6yqvwAGhoVpMD0Uo
2iiXrhYVtbdpd6eK0T8SLn1VpSg=
-----END CERTIFICATE-----
