Certificate:
    Data:
        Version: 3 (0x2)
        Serial Number: 3 (0x3)
        Signature Algorithm: sha256WithRSAEncryption
        Issuer: DC=fr, O=Untrusted TLS-inferer GASP Inc, OU=Untrusted TLS-inferer GASP Root CA, CN=Untrusted TLS-inferer GASP Root CA
        Validity
            Not Before: Mar  8 05:03:54 2024 GMT
            Not After : Mar  8 05:03:54 2026 GMT
        Subject: DC=fr, O=Untrusted TLS-inferer GASP Inc, CN=Untrusted Client TLS-inferer GASP
        Subject Public Key Info:
            Public Key Algorithm: rsaEncryption
                Public-Key: (2048 bit)
                Modulus:
                    00:ac:09:49:e2:fd:7b:f2:20:17:52:5b:0b:44:77:
                    c9:fb:b7:af:e6:30:a9:f4:9c:2f:91:5f:93:b0:ed:
                    12:64:48:47:58:9d:b4:a4:25:51:66:dd:f4:f2:4b:
                    c3:06:99:97:61:a6:cb:42:f1:91:24:6e:12:a4:6b:
                    2d:df:81:ff:98:42:1e:69:38:83:d4:4a:61:6d:63:
                    1e:c8:1e:5d:02:3b:e0:44:9e:22:86:eb:62:1b:84:
                    65:39:c5:43:91:e8:80:ad:67:dc:3a:0d:a0:f7:6e:
                    0f:70:88:a2:84:3d:9f:6c:bd:8f:d3:9b:63:02:2e:
                    12:26:3f:bb:05:54:d6:1d:dd:2e:bf:7b:63:6e:2e:
                    95:ae:bb:59:cc:01:8e:f2:94:5e:0c:8d:bf:85:41:
                    fb:ef:82:1a:1b:6e:3f:9b:a7:c2:e9:a1:dd:26:26:
                    5d:b9:a3:c8:25:28:52:50:4b:3a:48:ec:26:78:ac:
                    be:e4:9a:29:1d:18:44:14:81:eb:a5:94:3f:32:ba:
                    1d:85:3f:5d:75:f5:22:ae:49:1a:69:5f:05:a5:9f:
                    5f:2b:44:2c:73:28:8c:79:bd:25:b8:10:a9:66:f5:
                    bd:e5:fd:9a:89:89:ce:ba:75:aa:8c:5c:52:2b:50:
                    2f:ba:97:2e:c9:da:b2:41:65:c2:48:0d:31:1d:e1:
                    04:c7
                Exponent: 65537 (0x10001)
        X509v3 extensions:
            X509v3 Key Usage: critical
                Digital Signature
            X509v3 Basic Constraints: 
                CA:FALSE
            X509v3 Extended Key Usage: 
                TLS Web Client Authentication
            X509v3 Subject Key Identifier: 
                36:D9:AE:46:25:01:A7:2C:3B:4E:8A:15:DF:C6:A6:9C:81:99:D3:10
            X509v3 Authority Key Identifier: 
                F8:CC:19:49:E7:87:DB:2F:38:DA:5F:09:4C:A8:B7:76:15:1F:12:71
    Signature Algorithm: sha256WithRSAEncryption
    Signature Value:
        82:ac:49:d4:66:a4:e4:54:22:dd:85:86:9f:d7:ae:78:d9:2f:
        8f:a3:40:f6:fa:5e:7b:44:78:5a:d7:68:f6:21:e8:bd:16:5a:
        31:7c:16:ae:cf:f2:0a:0c:fc:4f:c2:e9:a7:00:ba:76:29:8f:
        5f:80:09:ad:d6:b3:95:94:7a:1f:03:6e:3b:53:6e:42:f6:7c:
        43:27:8f:0a:70:18:73:a5:3f:0c:26:c3:58:69:67:57:01:ce:
        a1:11:b7:ef:ce:86:4d:34:4f:99:f6:cb:f3:d7:59:64:ed:75:
        c3:24:6d:14:e2:38:f8:a8:db:56:8b:d0:bf:32:f9:c0:a9:1f:
        c4:44:e1:ec:90:c2:00:5d:39:3d:c5:5f:7b:ce:56:e0:52:7c:
        0e:ad:d8:24:8a:e3:e4:b0:8c:1d:6a:ed:33:cb:ae:cd:ea:d0:
        3e:c0:fc:6e:cf:f8:ba:77:8e:09:1c:f5:69:9f:cb:24:db:0b:
        bb:8f:ab:7c:05:28:5f:24:c3:e7:c3:b4:67:1f:30:26:1a:08:
        f2:5b:0d:91:78:92:03:24:0b:ce:1c:65:6b:96:06:55:26:13:
        73:26:4e:3b:36:ff:1c:64:ba:a3:2b:7f:23:87:c8:81:65:9e:
        bf:0a:91:11:bb:63:bf:c1:93:89:2d:71:7f:87:8e:b3:66:27:
        2e:31:a9:fa
-----BEGIN CERTIFICATE-----
MIID7jCCAtagAwIBAgIBAzANBgkqhkiG9w0BAQsFADCBlzESMBAGCgmSJomT8ixk
ARkWAmZyMScwJQYDVQQKDB5VbnRydXN0ZWQgVExTLWluZmVyZXIgR0FTUCBJbmMx
KzApBgNVBAsMIlVudHJ1c3RlZCBUTFMtaW5mZXJlciBHQVNQIFJvb3QgQ0ExKzAp
BgNVBAMMIlVudHJ1c3RlZCBUTFMtaW5mZXJlciBHQVNQIFJvb3QgQ0EwHhcNMjQw
MzA4MDUwMzU0WhcNMjYwMzA4MDUwMzU0WjBpMRIwEAYKCZImiZPyLGQBGRYCZnIx
JzAlBgNVBAoMHlVudHJ1c3RlZCBUTFMtaW5mZXJlciBHQVNQIEluYzEqMCgGA1UE
AwwhVW50cnVzdGVkIENsaWVudCBUTFMtaW5mZXJlciBHQVNQMIIBIjANBgkqhkiG
9w0BAQEFAAOCAQ8AMIIBCgKCAQEArAlJ4v178iAXUlsLRHfJ+7ev5jCp9JwvkV+T
sO0SZEhHWJ20pCVRZt308kvDBpmXYabLQvGRJG4SpGst34H/mEIeaTiD1EphbWMe
yB5dAjvgRJ4ihutiG4RlOcVDkeiArWfcOg2g924PcIiihD2fbL2P05tjAi4SJj+7
BVTWHd0uv3tjbi6VrrtZzAGO8pReDI2/hUH774IaG24/m6fC6aHdJiZduaPIJShS
UEs6SOwmeKy+5JopHRhEFIHrpZQ/MrodhT9ddfUirkkaaV8FpZ9fK0QscyiMeb0l
uBCpZvW95f2aiYnOunWqjFxSK1AvupcuydqyQWXCSA0xHeEExwIDAQABo3IwcDAO
BgNVHQ8BAf8EBAMCB4AwCQYDVR0TBAIwADATBgNVHSUEDDAKBggrBgEFBQcDAjAd
BgNVHQ4EFgQUNtmuRiUBpyw7TooV38amnIGZ0xAwHwYDVR0jBBgwFoAU+MwZSeeH
2y842l8JTKi3dhUfEnEwDQYJKoZIhvcNAQELBQADggEBAIKsSdRmpORUIt2Fhp/X
rnjZL4+jQPb6XntEeFrXaPYh6L0WWjF8Fq7P8goM/E/C6acAunYpj1+ACa3Ws5WU
eh8DbjtTbkL2fEMnjwpwGHOlPwwmw1hpZ1cBzqERt+/Ohk00T5n2y/PXWWTtdcMk
bRTiOPio21aL0L8y+cCpH8RE4eyQwgBdOT3FX3vOVuBSfA6t2CSK4+SwjB1q7TPL
rs3q0D7A/G7P+Lp3jgkc9WmfyyTbC7uPq3wFKF8kw+fDtGcfMCYaCPJbDZF4kgMk
C84cZWuWBlUmE3MmTjs2/xxkuqMrfyOHyIFlnr8KkRG7Y7/Bk4ktcX+HjrNmJy4x
qfo=
-----END CERTIFICATE-----
